target datalayout = "e-m:e-p270:32:32-p271:32:32-p272:64:64-i64:64-i128:128-f80:128-n8:16:32:64-S128"
target triple = "x86_64-pc-linux-gnu"

%struct.expert_field = type { i32, i32 }

@ei_ansi_a_extraneous_data = internal global %struct.expert_field zeroinitializer, align 4
@hf_ansi_a_reserved_bits_8_c0 = internal global i32 0, align 4
@hf_ansi_a_bdtmf_trans_info_dtmf_off_len = internal global i32 0, align 4
@hf_ansi_a_bdtmf_trans_info_dtmf_on_len = internal global i32 0, align 4

; Function Attrs: null_pointer_is_valid sspstrong uwtable
define internal zeroext i8 @elem_bdtmf_trans_info(ptr noundef %0, ptr noundef %1, ptr noundef %2, i32 noundef %3, i32 noundef %4, ptr noundef %5) #1 {
  %7 = alloca ptr, align 8
  %8 = alloca ptr, align 8
  %9 = alloca ptr, align 8
  %10 = alloca i32, align 4
  %11 = alloca i32, align 4
  %12 = alloca ptr, align 8
  %13 = alloca i32, align 4
  store ptr %0, ptr %7, align 8
  store ptr %1, ptr %8, align 8
  store ptr %2, ptr %9, align 8
  store i32 %3, ptr %10, align 4
  store i32 %4, ptr %11, align 4
  store ptr %5, ptr %12, align 8
  call void @llvm.lifetime.start.p0(i64 4, ptr %13) #8
  %14 = load i32, ptr %10, align 4
  store i32 %14, ptr %13, align 4
  %15 = load ptr, ptr %9, align 8
  %16 = load i32, ptr @hf_ansi_a_reserved_bits_8_c0, align 4
  %17 = load ptr, ptr %7, align 8
  %18 = load i32, ptr %13, align 4
  %19 = call ptr @proto_tree_add_item(ptr noundef %15, i32 noundef %16, ptr noundef %17, i32 noundef %18, i32 noundef 1, i32 noundef 0)
  %20 = load ptr, ptr %9, align 8
  %21 = load i32, ptr @hf_ansi_a_bdtmf_trans_info_dtmf_off_len, align 4
  %22 = load ptr, ptr %7, align 8
  %23 = load i32, ptr %13, align 4
  %24 = call ptr @proto_tree_add_item(ptr noundef %20, i32 noundef %21, ptr noundef %22, i32 noundef %23, i32 noundef 1, i32 noundef 0)
  %25 = load ptr, ptr %9, align 8
  %26 = load i32, ptr @hf_ansi_a_bdtmf_trans_info_dtmf_on_len, align 4
  %27 = load ptr, ptr %7, align 8
  %28 = load i32, ptr %13, align 4
  %29 = call ptr @proto_tree_add_item(ptr noundef %25, i32 noundef %26, ptr noundef %27, i32 noundef %28, i32 noundef 1, i32 noundef 0)
  %30 = load i32, ptr %13, align 4
  %31 = add i32 %30, 1
  store i32 %31, ptr %13, align 4
  %32 = load i32, ptr %11, align 4
  %33 = load i32, ptr %13, align 4
  %34 = load i32, ptr %10, align 4
  %35 = sub i32 %33, %34
  %36 = icmp ugt i32 %32, %35
  br i1 %36, label %37, label %55

37:                                               ; preds = %6
  %38 = load ptr, ptr %9, align 8
  %39 = load ptr, ptr %8, align 8
  %40 = load ptr, ptr %7, align 8
  %41 = load i32, ptr %13, align 4
  %42 = load i32, ptr %11, align 4
  %43 = load i32, ptr %13, align 4
  %44 = load i32, ptr %10, align 4
  %45 = sub i32 %43, %44
  %46 = sub i32 %42, %45
  %47 = call ptr @proto_tree_add_expert(ptr noundef %38, ptr noundef %39, ptr noundef @ei_ansi_a_extraneous_data, ptr noundef %40, i32 noundef %41, i32 noundef %46)
  %48 = load i32, ptr %11, align 4
  %49 = load i32, ptr %13, align 4
  %50 = load i32, ptr %10, align 4
  %51 = sub i32 %49, %50
  %52 = sub i32 %48, %51
  %53 = load i32, ptr %13, align 4
  %54 = add i32 %53, %52
  store i32 %54, ptr %13, align 4
  br label %55

55:                                               ; preds = %37, %6
  %56 = load i32, ptr %13, align 4
  %57 = load i32, ptr %10, align 4
  %58 = sub i32 %56, %57
  %59 = trunc i32 %58 to i8
  call void @llvm.lifetime.end.p0(i64 4, ptr %13) #8
  ret i8 %59
}