; Function Attrs: null_pointer_is_valid sspstrong uwtable
define internal noundef zeroext i8 @elem_bdtmf_trans_info(ptr noundef %0, ptr noundef %1, ptr noundef %2, i32 noundef %3, i32 noundef %4, ptr readnone captures(none) %5) #1 {
  %7 = load i32, ptr @hf_ansi_a_reserved_bits_8_c0, align 4
  %8 = tail call ptr @proto_tree_add_item(ptr noundef %2, i32 noundef %7, ptr noundef %0, i32 noundef %3, i32 noundef 1, i32 noundef 0)
  %9 = load i32, ptr @hf_ansi_a_bdtmf_trans_info_dtmf_off_len, align 4
  %10 = tail call ptr @proto_tree_add_item(ptr noundef %2, i32 noundef %9, ptr noundef %0, i32 noundef %3, i32 noundef 1, i32 noundef 0)
  %11 = load i32, ptr @hf_ansi_a_bdtmf_trans_info_dtmf_on_len, align 4
  %12 = tail call ptr @proto_tree_add_item(ptr noundef %2, i32 noundef %11, ptr noundef %0, i32 noundef %3, i32 noundef 1, i32 noundef 0)
  %13 = add i32 %3, 1
  %14 = icmp ugt i32 %4, 1
  br i1 %14, label %15, label %19

15:                                               ; preds = %6
  %16 = add i32 %4, -1
  %17 = tail call ptr @proto_tree_add_expert(ptr noundef %2, ptr noundef %1, ptr noundef nonnull @ei_ansi_a_extraneous_data, ptr noundef %0, i32 noundef %13, i32 noundef %16)
  %18 = add i32 %4, %3
  br label %19

19:                                               ; preds = %15, %6
  %.0 = phi i32 [ %18, %15 ], [ %13, %6 ]
  %20 = sub i32 %.0, %3
  %21 = trunc i32 %20 to i8
  ret i8 %21
}